; ModuleID = '46/3550.c'
source_filename = "46/3550.c"
target datalayout = "e-m:e-p270:32:32-p271:32:32-p272:64:64-i64:64-f80:128-n8:16:32:64-S128"
target triple = "x86_64-pc-linux-gnu"

@.str = private unnamed_addr constant [5 x i8] c"%d%d\00", align 1
@.str.1 = private unnamed_addr constant [3 x i8] c"%d\00", align 1
@.str.2 = private unnamed_addr constant [4 x i8] c"%d\0A\00", align 1

; Function Attrs: noinline nounwind uwtable
define dso_local i32 @main() #0 {
  %1 = alloca i32, align 4
  %2 = alloca [100 x [100 x i32]], align 16
  %3 = alloca i32, align 4
  %4 = alloca i32, align 4
  %5 = alloca i32, align 4
  %6 = alloca i32, align 4
  %7 = alloca i32, align 4
  %8 = alloca i32, align 4
  store i32 0, i32* %1, align 4
  %9 = call i32 (i8*, ...) @__isoc99_scanf(i8* getelementptr inbounds ([5 x i8], [5 x i8]* @.str, i64 0, i64 0), i32* %3, i32* %4)
  store i32 0, i32* %6, align 4
  br label %10

10:                                               ; preds = %31, %0
  %11 = load i32, i32* %6, align 4
  %12 = load i32, i32* %3, align 4
  %13 = icmp slt i32 %11, %12
  br i1 %13, label %14, label %34

14:                                               ; preds = %10
  store i32 0, i32* %7, align 4
  br label %15

15:                                               ; preds = %27, %14
  %16 = load i32, i32* %7, align 4
  %17 = load i32, i32* %4, align 4
  %18 = icmp slt i32 %16, %17
  br i1 %18, label %19, label %30

19:                                               ; preds = %15
  %20 = load i32, i32* %6, align 4
  %21 = sext i32 %20 to i64
  %22 = getelementptr inbounds [100 x [100 x i32]], [100 x [100 x i32]]* %2, i64 0, i64 %21
  %23 = load i32, i32* %7, align 4
  %24 = sext i32 %23 to i64
  %25 = getelementptr inbounds [100 x i32], [100 x i32]* %22, i64 0, i64 %24
  %26 = call i32 (i8*, ...) @__isoc99_scanf(i8* getelementptr inbounds ([3 x i8], [3 x i8]* @.str.1, i64 0, i64 0), i32* %25)
  br label %27

27:                                               ; preds = %19
  %28 = load i32, i32* %7, align 4
  %29 = add nsw i32 %28, 1
  store i32 %29, i32* %7, align 4
  br label %15

30:                                               ; preds = %15
  br label %31

31:                                               ; preds = %30
  %32 = load i32, i32* %6, align 4
  %33 = add nsw i32 %32, 1
  store i32 %33, i32* %6, align 4
  br label %10

34:                                               ; preds = %10
  %35 = load i32, i32* %3, align 4
  %36 = load i32, i32* %4, align 4
  %37 = mul nsw i32 %35, %36
  store i32 %37, i32* %5, align 4
  store i32 0, i32* %8, align 4
  br label %38

38:                                               ; preds = %145, %34
  %39 = load i32, i32* %8, align 4
  store i32 %39, i32* %7, align 4
  br label %40

40:                                               ; preds = %61, %38
  %41 = load i32, i32* %7, align 4
  %42 = load i32, i32* %4, align 4
  %43 = load i32, i32* %8, align 4
  %44 = sub nsw i32 %42, %43
  %45 = icmp slt i32 %41, %44
  br i1 %45, label %46, label %64

46:                                               ; preds = %40
  %47 = load i32, i32* %8, align 4
  %48 = sext i32 %47 to i64
  %49 = getelementptr inbounds [100 x [100 x i32]], [100 x [100 x i32]]* %2, i64 0, i64 %48
  %50 = load i32, i32* %7, align 4
  %51 = sext i32 %50 to i64
  %52 = getelementptr inbounds [100 x i32], [100 x i32]* %49, i64 0, i64 %51
  %53 = load i32, i32* %52, align 4
  %54 = call i32 (i8*, ...) @printf(i8* getelementptr inbounds ([4 x i8], [4 x i8]* @.str.2, i64 0, i64 0), i32 %53)
  %55 = load i32, i32* %5, align 4
  %56 = add nsw i32 %55, -1
  store i32 %56, i32* %5, align 4
  %57 = load i32, i32* %5, align 4
  %58 = icmp eq i32 %57, 0
  br i1 %58, label %59, label %60

59:                                               ; preds = %46
  store i32 0, i32* %1, align 4
  br label %148

60:                                               ; preds = %46
  br label %61

61:                                               ; preds = %60
  %62 = load i32, i32* %7, align 4
  %63 = add nsw i32 %62, 1
  store i32 %63, i32* %7, align 4
  br label %40

64:                                               ; preds = %40
  %65 = load i32, i32* %8, align 4
  %66 = add nsw i32 %65, 1
  store i32 %66, i32* %6, align 4
  br label %67

67:                                               ; preds = %89, %64
  %68 = load i32, i32* %6, align 4
  %69 = load i32, i32* %3, align 4
  %70 = load i32, i32* %8, align 4
  %71 = sub nsw i32 %69, %70
  %72 = icmp slt i32 %68, %71
  br i1 %72, label %73, label %92

73:                                               ; preds = %67
  %74 = load i32, i32* %6, align 4
  %75 = sext i32 %74 to i64
  %76 = getelementptr inbounds [100 x [100 x i32]], [100 x [100 x i32]]* %2, i64 0, i64 %75
  %77 = load i32, i32* %7, align 4
  %78 = sub nsw i32 %77, 1
  %79 = sext i32 %78 to i64
  %80 = getelementptr inbounds [100 x i32], [100 x i32]* %76, i64 0, i64 %79
  %81 = load i32, i32* %80, align 4
  %82 = call i32 (i8*, ...) @printf(i8* getelementptr inbounds ([4 x i8], [4 x i8]* @.str.2, i64 0, i64 0), i32 %81)
  %83 = load i32, i32* %5, align 4
  %84 = add nsw i32 %83, -1
  store i32 %84, i32* %5, align 4
  %85 = load i32, i32* %5, align 4
  %86 = icmp eq i32 %85, 0
  br i1 %86, label %87, label %88

87:                                               ; preds = %73
  store i32 0, i32* %1, align 4
  br label %148

88:                                               ; preds = %73
  br label %89

89:                                               ; preds = %88
  %90 = load i32, i32* %6, align 4
  %91 = add nsw i32 %90, 1
  store i32 %91, i32* %6, align 4
  br label %67

92:                                               ; preds = %67
  %93 = load i32, i32* %7, align 4
  %94 = sub nsw i32 %93, 2
  store i32 %94, i32* %7, align 4
  br label %95

95:                                               ; preds = %116, %92
  %96 = load i32, i32* %7, align 4
  %97 = load i32, i32* %8, align 4
  %98 = sub nsw i32 %97, 1
  %99 = icmp sgt i32 %96, %98
  br i1 %99, label %100, label %119

100:                                              ; preds = %95
  %101 = load i32, i32* %6, align 4
  %102 = sub nsw i32 %101, 1
  %103 = sext i32 %102 to i64
  %104 = getelementptr inbounds [100 x [100 x i32]], [100 x [100 x i32]]* %2, i64 0, i64 %103
  %105 = load i32, i32* %7, align 4
  %106 = sext i32 %105 to i64
  %107 = getelementptr inbounds [100 x i32], [100 x i32]* %104, i64 0, i64 %106
  %108 = load i32, i32* %107, align 4
  %109 = call i32 (i8*, ...) @printf(i8* getelementptr inbounds ([4 x i8], [4 x i8]* @.str.2, i64 0, i64 0), i32 %108)
  %110 = load i32, i32* %5, align 4
  %111 = add nsw i32 %110, -1
  store i32 %111, i32* %5, align 4
  %112 = load i32, i32* %5, align 4
  %113 = icmp eq i32 %112, 0
  br i1 %113, label %114, label %115

114:                                              ; preds = %100
  store i32 0, i32* %1, align 4
  br label %148

115:                                              ; preds = %100
  br label %116

116:                                              ; preds = %115
  %117 = load i32, i32* %7, align 4
  %118 = add nsw i32 %117, -1
  store i32 %118, i32* %7, align 4
  br label %95

119:                                              ; preds = %95
  %120 = load i32, i32* %6, align 4
  %121 = sub nsw i32 %120, 2
  store i32 %121, i32* %6, align 4
  br label %122

122:                                              ; preds = %141, %119
  %123 = load i32, i32* %6, align 4
  %124 = load i32, i32* %8, align 4
  %125 = icmp sgt i32 %123, %124
  br i1 %125, label %126, label %144

126:                                              ; preds = %122
  %127 = load i32, i32* %6, align 4
  %128 = sext i32 %127 to i64
  %129 = getelementptr inbounds [100 x [100 x i32]], [100 x [100 x i32]]* %2, i64 0, i64 %128
  %130 = load i32, i32* %8, align 4
  %131 = sext i32 %130 to i64
  %132 = getelementptr inbounds [100 x i32], [100 x i32]* %129, i64 0, i64 %131
  %133 = load i32, i32* %132, align 4
  %134 = call i32 (i8*, ...) @printf(i8* getelementptr inbounds ([4 x i8], [4 x i8]* @.str.2, i64 0, i64 0), i32 %133)
  %135 = load i32, i32* %5, align 4
  %136 = add nsw i32 %135, -1
  store i32 %136, i32* %5, align 4
  %137 = load i32, i32* %5, align 4
  %138 = icmp eq i32 %137, 0
  br i1 %138, label %139, label %140

139:                                              ; preds = %126
  store i32 0, i32* %1, align 4
  br label %148

140:                                              ; preds = %126
  br label %141

141:                                              ; preds = %140
  %142 = load i32, i32* %6, align 4
  %143 = add nsw i32 %142, -1
  store i32 %143, i32* %6, align 4
  br label %122

144:                                              ; preds = %122
  br label %145

145:                                              ; preds = %144
  %146 = load i32, i32* %8, align 4
  %147 = add nsw i32 %146, 1
  store i32 %147, i32* %8, align 4
  br label %38

148:                                              ; preds = %139, %114, %87, %59
  %149 = load i32, i32* %1, align 4
  ret i32 %149
}

declare dso_local i32 @__isoc99_scanf(i8*, ...) #1

declare dso_local i32 @printf(i8*, ...) #1


!llvm.module.flags = !{!0}
!llvm.ident = !{!1}

!0 = !{i32 1, !"wchar_size", i32 4}
!1 = !{!"clang version 10.0.0-4ubuntu1 "}
